; Function Attrs: mustprogress nofree norecurse nosync nounwind willreturn memory(read, inaccessiblemem: none) uwtable
define hidden noundef zeroext i1 @_ZNK3sat12asymm_branch10is_touchedEj(ptr noundef nonnull readonly align 8 captures(none) dereferenceable(128) %0, i32 noundef %1) local_unnamed_addr #13 align 2 {
  %3 = load ptr, ptr %0, align 8, !tbaa !40
  %4 = getelementptr inbounds nuw i8, ptr %3, i64 3352
  %5 = load ptr, ptr %4, align 8, !tbaa !254
  %6 = zext i32 %1 to i64
  %7 = getelementptr inbounds nuw i32, ptr %5, i64 %6
  %8 = load i32, ptr %7, align 4, !tbaa !187
  %9 = getelementptr inbounds nuw i8, ptr %0, i64 32
  %10 = load i32, ptr %9, align 8, !tbaa !27
  %11 = icmp uge i32 %8, %10
  ret i1 %11
}